; Function Attrs: mustprogress uwtable
define internal void @_ZNK5boost10filesystem12_GLOBAL__N_117codecvt_error_cat7messageB5cxx11Ei(ptr dead_on_unwind noalias writable sret(%"class.std::__cxx11::basic_string") align 8 %0, ptr nocapture nonnull readnone align 8 %1, i32 noundef %2) unnamed_addr #6 align 2 personality ptr @__gxx_personality_v0 {
  %4 = getelementptr inbounds nuw i8, ptr %0, i64 16
  store ptr %4, ptr %0, align 8, !tbaa !27
  %5 = getelementptr inbounds nuw i8, ptr %0, i64 8
  store i64 0, ptr %5, align 8, !tbaa !26
  store i8 0, ptr %4, align 8, !tbaa !20
  %6 = icmp ult i32 %2, 4
  br i1 %6, label %switch.lookup, label %.invoke

7:                                                ; preds = %.invoke
  %8 = landingpad { ptr, i32 }
          cleanup
  %9 = load ptr, ptr %0, align 8, !tbaa !23
  %10 = icmp eq ptr %9, %4
  br i1 %10, label %_ZNKSt7__cxx1112basic_stringIcSt11char_traitsIcESaIcEE11_M_is_localEv.exit.thread.i.i, label %_ZNKSt7__cxx1112basic_stringIcSt11char_traitsIcESaIcEE11_M_is_localEv.exit.i.i

_ZNKSt7__cxx1112basic_stringIcSt11char_traitsIcESaIcEE11_M_is_localEv.exit.thread.i.i: ; preds = %7
  %11 = load i64, ptr %5, align 8, !tbaa !26
  %12 = icmp ult i64 %11, 16
  tail call void @llvm.assume(i1 %12)
  br label %_ZNSt7__cxx1112basic_stringIcSt11char_traitsIcESaIcEED2Ev.exit

_ZNKSt7__cxx1112basic_stringIcSt11char_traitsIcESaIcEE11_M_is_localEv.exit.i.i: ; preds = %7
  %13 = load i64, ptr %4, align 8, !tbaa !20
  %14 = add i64 %13, 1
  tail call void @_ZdlPvm(ptr noundef %9, i64 noundef %14) #13
  br label %_ZNSt7__cxx1112basic_stringIcSt11char_traitsIcESaIcEED2Ev.exit

_ZNSt7__cxx1112basic_stringIcSt11char_traitsIcESaIcEED2Ev.exit: ; preds = %_ZNKSt7__cxx1112basic_stringIcSt11char_traitsIcESaIcEE11_M_is_localEv.exit.thread.i.i, %_ZNKSt7__cxx1112basic_stringIcSt11char_traitsIcESaIcEE11_M_is_localEv.exit.i.i
  resume { ptr, i32 } %8

switch.lookup:                                    ; preds = %3
  %15 = zext nneg i32 %2 to i64
  %switch.gep = getelementptr inbounds [4 x ptr], ptr @switch.table._ZNK5boost10filesystem12_GLOBAL__N_117codecvt_error_cat7messageB5cxx11Ei, i64 0, i64 %15
  %switch.load = load ptr, ptr %switch.gep, align 8
  %16 = zext nneg i32 %2 to i64
  %switch.gep7 = getelementptr inbounds [4 x i64], ptr @switch.table._ZNK5boost10filesystem12_GLOBAL__N_117codecvt_error_cat7messageB5cxx11Ei.1, i64 0, i64 %16
  %switch.load8 = load i64, ptr %switch.gep7, align 8
  br label %.invoke

.invoke:                                          ; preds = %3, %switch.lookup
  %17 = phi ptr [ %switch.load, %switch.lookup ], [ @.str.12, %3 ]
  %18 = phi i64 [ %switch.load8, %switch.lookup ], [ 13, %3 ]
  %19 = invoke noundef nonnull align 8 dereferenceable(32) ptr @_ZNSt7__cxx1112basic_stringIcSt11char_traitsIcESaIcEE10_M_replaceEmmPKcm(ptr noundef nonnull align 8 dereferenceable(32) %0, i64 noundef 0, i64 noundef 0, ptr noundef nonnull %17, i64 noundef %18)
          to label %_ZNSt7__cxx1112basic_stringIcSt11char_traitsIcESaIcEEaSEPKc.exit unwind label %7

_ZNSt7__cxx1112basic_stringIcSt11char_traitsIcESaIcEEaSEPKc.exit: ; preds = %.invoke
  ret void
}